target datalayout = "e-m:e-p270:32:32-p271:32:32-p272:64:64-i64:64-i128:128-f80:128-n8:16:32:64-S128"
target triple = "x86_64-pc-linux-gnu"

%struct.Node = type { i32 }
%struct.RangeTblEntry = type { i32, ptr, ptr, i32, i32, i8, i8, i32, i32, ptr, ptr, i8, i32, i32, ptr, ptr, ptr, ptr, ptr, i8, ptr, ptr, ptr, i32, i8, ptr, ptr, ptr, ptr, double, ptr, i8, i8, ptr }

; Function Attrs: nounwind uwtable
define internal zeroext i1 @contain_outer_selfref_walker(ptr noundef %0, ptr noundef %1) #0 {
  %3 = alloca i1, align 1
  %4 = alloca ptr, align 8
  %5 = alloca ptr, align 8
  %6 = alloca ptr, align 8
  %7 = alloca i32, align 4
  %8 = alloca ptr, align 8
  %9 = alloca i8, align 1
  store ptr %0, ptr %4, align 8
  store ptr %1, ptr %5, align 8
  %10 = load ptr, ptr %4, align 8
  %11 = icmp eq ptr %10, null
  br i1 %11, label %12, label %13

12:                                               ; preds = %2
  store i1 false, ptr %3, align 1
  br label %62

13:                                               ; preds = %2
  %14 = load ptr, ptr %4, align 8
  %15 = getelementptr inbounds nuw %struct.Node, ptr %14, i32 0, i32 0
  %16 = load i32, ptr %15, align 4
  %17 = icmp eq i32 %16, 101
  br i1 %17, label %18, label %39

18:                                               ; preds = %13
  call void @llvm.lifetime.start.p0(i64 8, ptr %6) #8
  %19 = load ptr, ptr %4, align 8
  store ptr %19, ptr %6, align 8
  %20 = load ptr, ptr %6, align 8
  %21 = getelementptr inbounds nuw %struct.RangeTblEntry, ptr %20, i32 0, i32 3
  %22 = load i32, ptr %21, align 8
  %23 = icmp eq i32 %22, 6
  br i1 %23, label %24, label %37

24:                                               ; preds = %18
  %25 = load ptr, ptr %6, align 8
  %26 = getelementptr inbounds nuw %struct.RangeTblEntry, ptr %25, i32 0, i32 24
  %27 = load i8, ptr %26, align 4, !range !4, !noundef !5
  %28 = trunc i8 %27 to i1
  br i1 %28, label %29, label %37

29:                                               ; preds = %24
  %30 = load ptr, ptr %6, align 8
  %31 = getelementptr inbounds nuw %struct.RangeTblEntry, ptr %30, i32 0, i32 23
  %32 = load i32, ptr %31, align 8
  %33 = load ptr, ptr %5, align 8
  %34 = load i32, ptr %33, align 4
  %35 = icmp uge i32 %32, %34
  br i1 %35, label %36, label %37

36:                                               ; preds = %29
  store i1 true, ptr %3, align 1
  store i32 1, ptr %7, align 4
  br label %38

37:                                               ; preds = %29, %24, %18
  store i1 false, ptr %3, align 1
  store i32 1, ptr %7, align 4
  br label %38

38:                                               ; preds = %37, %36
  call void @llvm.lifetime.end.p0(i64 8, ptr %6) #8
  br label %62

39:                                               ; preds = %13
  %40 = load ptr, ptr %4, align 8
  %41 = getelementptr inbounds nuw %struct.Node, ptr %40, i32 0, i32 0
  %42 = load i32, ptr %41, align 4
  %43 = icmp eq i32 %42, 67
  br i1 %43, label %44, label %58

44:                                               ; preds = %39
  call void @llvm.lifetime.start.p0(i64 8, ptr %8) #8
  %45 = load ptr, ptr %4, align 8
  store ptr %45, ptr %8, align 8
  call void @llvm.lifetime.start.p0(i64 1, ptr %9) #8
  %46 = load ptr, ptr %5, align 8
  %47 = load i32, ptr %46, align 4
  %48 = add i32 %47, 1
  store i32 %48, ptr %46, align 4
  %49 = load ptr, ptr %8, align 8
  %50 = load ptr, ptr %5, align 8
  %51 = call zeroext i1 @query_tree_walker_impl(ptr noundef %49, ptr noundef @contain_outer_selfref_walker, ptr noundef %50, i32 noundef 16)
  %52 = zext i1 %51 to i8
  store i8 %52, ptr %9, align 1
  %53 = load ptr, ptr %5, align 8
  %54 = load i32, ptr %53, align 4
  %55 = add i32 %54, -1
  store i32 %55, ptr %53, align 4
  %56 = load i8, ptr %9, align 1, !range !4, !noundef !5
  %57 = trunc i8 %56 to i1
  store i1 %57, ptr %3, align 1
  store i32 1, ptr %7, align 4
  call void @llvm.lifetime.end.p0(i64 1, ptr %9) #8
  call void @llvm.lifetime.end.p0(i64 8, ptr %8) #8
  br label %62

58:                                               ; preds = %39
  %59 = load ptr, ptr %4, align 8
  %60 = load ptr, ptr %5, align 8
  %61 = call zeroext i1 @expression_tree_walker_impl(ptr noundef %59, ptr noundef @contain_outer_selfref_walker, ptr noundef %60)
  store i1 %61, ptr %3, align 1
  br label %62

62:                                               ; preds = %58, %44, %38, %12
  %63 = load i1, ptr %3, align 1
  ret i1 %63
}