; Function Attrs: nounwind uwtable
define internal zeroext i1 @contain_outer_selfref_walker(ptr noundef %0, ptr noundef %1) #0 {
  %3 = icmp eq ptr %0, null
  br i1 %3, label %27, label %4

4:                                                ; preds = %2
  %5 = load i32, ptr %0, align 4
  switch i32 %5, label %25 [
    i32 101, label %6
    i32 67, label %19
  ]

6:                                                ; preds = %4
  %7 = getelementptr inbounds nuw i8, ptr %0, i64 24
  %8 = load i32, ptr %7, align 8
  %9 = icmp eq i32 %8, 6
  br i1 %9, label %10, label %18

10:                                               ; preds = %6
  %11 = getelementptr inbounds nuw i8, ptr %0, i64 156
  %12 = load i8, ptr %11, align 4, !range !4, !noundef !5
  %13 = trunc nuw i8 %12 to i1
  br i1 %13, label %14, label %18

14:                                               ; preds = %10
  %15 = getelementptr inbounds nuw i8, ptr %0, i64 152
  %16 = load i32, ptr %15, align 8
  %17 = load i32, ptr %1, align 4
  %.not = icmp ult i32 %16, %17
  br i1 %.not, label %18, label %27

18:                                               ; preds = %14, %10, %6
  br label %27

19:                                               ; preds = %4
  %20 = load i32, ptr %1, align 4
  %21 = add i32 %20, 1
  store i32 %21, ptr %1, align 4
  %22 = tail call zeroext i1 @query_tree_walker_impl(ptr noundef nonnull %0, ptr noundef nonnull @contain_outer_selfref_walker, ptr noundef nonnull %1, i32 noundef 16) #10
  %23 = load i32, ptr %1, align 4
  %24 = add i32 %23, -1
  store i32 %24, ptr %1, align 4
  br label %27

25:                                               ; preds = %4
  %26 = tail call zeroext i1 @expression_tree_walker_impl(ptr noundef nonnull %0, ptr noundef nonnull @contain_outer_selfref_walker, ptr noundef %1) #10
  br label %27

27:                                               ; preds = %18, %14, %2, %25, %19
  %.0 = phi i1 [ %22, %19 ], [ %26, %25 ], [ false, %2 ], [ false, %18 ], [ true, %14 ]
  ret i1 %.0
}